; Function Attrs: mustprogress uwtable
define void @_ZN9grpc_core11RetryFilter14LegacyCallData11CallAttempt9BatchData17AddCancelStreamOpEN4absl12lts_202308026StatusE(ptr noundef nonnull align 8 dereferenceable(120) %this, ptr nocapture noundef readonly %error) local_unnamed_addr #3 align 2 {
entry:
  %cancel_stream = getelementptr inbounds i8, ptr %this, i64 40
  %bf.load = load i8, ptr %cancel_stream, align 8
  %bf.set = or i8 %bf.load, 64
  store i8 %bf.set, ptr %cancel_stream, align 8
  %payload = getelementptr inbounds i8, ptr %this, i64 32
  %0 = load ptr, ptr %payload, align 8
  %cancel_stream3 = getelementptr inbounds i8, ptr %0, i64 120
  %1 = load i64, ptr %cancel_stream3, align 8
  %2 = load i64, ptr %error, align 8
  %cmp.not.i = icmp eq i64 %2, %1
  br i1 %cmp.not.i, label %_ZN4absl12lts_202308026StatusaSERKS1_.exit, label %if.then.i

if.then.i:                                        ; preds = %entry
  %and.i.i.i = and i64 %2, 1
  %cmp.i.i.i = icmp eq i64 %and.i.i.i, 0
  br i1 %cmp.i.i.i, label %_ZN4absl12lts_202308026Status3RefEm.exit.i, label %if.then.i.i

if.then.i.i:                                      ; preds = %if.then.i
  %sub.i.i.i = add nsw i64 %2, -1
  %3 = inttoptr i64 %sub.i.i.i to ptr
  %4 = atomicrmw add ptr %3, i32 1 monotonic, align 4
  %.pre.i = load i64, ptr %error, align 8
  br label %_ZN4absl12lts_202308026Status3RefEm.exit.i

_ZN4absl12lts_202308026Status3RefEm.exit.i:       ; preds = %if.then.i.i, %if.then.i
  %5 = phi i64 [ %2, %if.then.i ], [ %.pre.i, %if.then.i.i ]
  store i64 %5, ptr %cancel_stream3, align 8
  %and.i.i5.i = and i64 %1, 1
  %cmp.i.i6.i = icmp eq i64 %and.i.i5.i, 0
  br i1 %cmp.i.i6.i, label %_ZN4absl12lts_202308026StatusaSERKS1_.exit, label %if.then.i7.i

if.then.i7.i:                                     ; preds = %_ZN4absl12lts_202308026Status3RefEm.exit.i
  tail call void @_ZN4absl12lts_202308026Status15UnrefNonInlinedEm(i64 noundef %1)
  br label %_ZN4absl12lts_202308026StatusaSERKS1_.exit

_ZN4absl12lts_202308026StatusaSERKS1_.exit:       ; preds = %entry, %_ZN4absl12lts_202308026Status3RefEm.exit.i, %if.then.i7.i
  %cb1.i = getelementptr inbounds i8, ptr %this, i64 96
  store ptr @_ZN9grpc_core11RetryFilter14LegacyCallData11CallAttempt9BatchData21OnCompleteForCancelOpEPvN4absl12lts_202308026StatusE, ptr %cb1.i, align 8
  %cb_arg2.i = getelementptr inbounds i8, ptr %this, i64 104
  store ptr %this, ptr %cb_arg2.i, align 8
  %error_data.i = getelementptr inbounds i8, ptr %this, i64 112
  store i64 0, ptr %error_data.i, align 8
  ret void
}